; Function Attrs: nounwind uwtable
define i64 @Java_jdk_internal_loader_NativeLibrary_findEntry0(ptr noundef %0, ptr nocapture noundef readnone %1, i64 noundef %2, ptr noundef %3) local_unnamed_addr #0 {
  %5 = load ptr, ptr %0, align 8
  %6 = getelementptr inbounds i8, ptr %5, i64 1352
  %7 = load ptr, ptr %6, align 8
  %8 = tail call ptr %7(ptr noundef nonnull %0, ptr noundef %3, ptr noundef null) #6
  %9 = icmp eq ptr %8, null
  br i1 %9, label %17, label %10

10:                                               ; preds = %4
  %11 = inttoptr i64 %2 to ptr
  %12 = tail call ptr @JVM_FindLibraryEntry(ptr noundef %11, ptr noundef nonnull %8) #6
  %13 = ptrtoint ptr %12 to i64
  %14 = load ptr, ptr %0, align 8
  %15 = getelementptr inbounds i8, ptr %14, i64 1360
  %16 = load ptr, ptr %15, align 8
  tail call void %16(ptr noundef nonnull %0, ptr noundef %3, ptr noundef nonnull %8) #6
  br label %17

17:                                               ; preds = %4, %10
  %.0 = phi i64 [ %13, %10 ], [ 0, %4 ]
  ret i64 %.0
}